; Function Attrs: mustprogress nounwind uwtable
define hidden noundef ptr @_ZN24internal_word_Relocation6targetEv(ptr noundef nonnull align 8 dereferenceable(36) %0) local_unnamed_addr #0 align 2 {
  %2 = getelementptr inbounds i8, ptr %0, i64 24
  %3 = load ptr, ptr %2, align 8
  %4 = icmp eq ptr %3, null
  br i1 %4, label %5, label %20

5:                                                ; preds = %1
  %6 = getelementptr inbounds i8, ptr %0, i64 8
  %7 = load ptr, ptr %6, align 8
  %8 = getelementptr inbounds i8, ptr %7, i64 64
  %9 = load ptr, ptr %8, align 8
  %10 = getelementptr inbounds i8, ptr %7, i64 32
  %11 = load ptr, ptr %10, align 8
  %.not.i.i = icmp ule ptr %9, %11
  %12 = getelementptr inbounds i8, ptr %7, i64 88
  %13 = load ptr, ptr %12, align 8
  %14 = icmp ult ptr %11, %13
  %15 = select i1 %.not.i.i, i1 %14, i1 false
  br i1 %15, label %16, label %18

16:                                               ; preds = %5
  %17 = load ptr, ptr %11, align 8
  br label %20

18:                                               ; preds = %5
  %19 = tail call noundef ptr @_ZN10Relocation24pd_get_address_from_codeEv(ptr noundef nonnull align 8 dereferenceable(20) %0) #19
  br label %20

20:                                               ; preds = %16, %18, %1
  %.0 = phi ptr [ %17, %16 ], [ %19, %18 ], [ %3, %1 ]
  ret ptr %.0
}